; Function Attrs: mustprogress uwtable
define hidden i32 @_ZN2dt6solver33mk_recognizer_constructor_literalEP9func_declPN3euf5enodeE(ptr noundef nonnull align 8 dereferenceable(472) %0, ptr noundef %1, ptr noundef readonly captures(none) %2) local_unnamed_addr #3 align 2 personality ptr @__gxx_personality_v0 {
  %4 = alloca ptr, align 8
  %5 = alloca %class.obj_ref.196, align 8
  %6 = getelementptr inbounds nuw i8, ptr %0, i64 112
  %7 = tail call noundef ptr @_ZN8datatype4util18get_constructor_isEP9func_decl(ptr noundef nonnull align 8 dereferenceable(24) %6, ptr noundef %1)
  call void @llvm.lifetime.start.p0(i64 16, ptr nonnull %5) #23
  %8 = getelementptr inbounds nuw i8, ptr %0, i64 72
  %9 = load ptr, ptr %8, align 8, !tbaa !390
  %10 = load ptr, ptr %2, align 8, !tbaa !470
  call void @llvm.lifetime.start.p0(i64 8, ptr nonnull %4)
  store ptr %10, ptr %4, align 8, !tbaa !433
  %11 = call noundef ptr @_ZN11ast_manager6mk_appEP9func_decljPKP4expr(ptr noundef nonnull align 8 dereferenceable(976) %9, ptr noundef %7, i32 noundef 1, ptr noundef nonnull %4)
  call void @llvm.lifetime.end.p0(i64 8, ptr nonnull %4)
  %12 = load ptr, ptr %8, align 8, !tbaa !390
  store ptr %11, ptr %5, align 8, !tbaa !497
  %13 = getelementptr inbounds nuw i8, ptr %5, i64 8
  store ptr %12, ptr %13, align 8, !tbaa !393
  %.not.i.i = icmp eq ptr %11, null
  br i1 %.not.i.i, label %_ZN7obj_refI3app11ast_managerEC2EPS0_RS1_.exit, label %_ZN11ast_manager7inc_refEP3ast.exit.i.i

_ZN11ast_manager7inc_refEP3ast.exit.i.i:          ; preds = %3
  %14 = getelementptr inbounds nuw i8, ptr %11, i64 8
  %15 = load i32, ptr %14, align 4, !tbaa !436
  %16 = add i32 %15, 1
  store i32 %16, ptr %14, align 4, !tbaa !436
  br label %_ZN7obj_refI3app11ast_managerEC2EPS0_RS1_.exit

_ZN7obj_refI3app11ast_managerEC2EPS0_RS1_.exit:   ; preds = %3, %_ZN11ast_manager7inc_refEP3ast.exit.i.i
  %17 = invoke i32 @_ZNK3euf13th_euf_solver10mk_literalEP4expr(ptr noundef nonnull align 8 dereferenceable(108) %0, ptr noundef %11)
          to label %18 unwind label %34

18:                                               ; preds = %_ZN7obj_refI3app11ast_managerEC2EPS0_RS1_.exit
  %19 = getelementptr inbounds nuw i8, ptr %0, i64 24
  %20 = load ptr, ptr %19, align 8, !tbaa !474
  %21 = load ptr, ptr %20, align 8, !tbaa !388
  %22 = getelementptr inbounds nuw i8, ptr %21, i64 48
  %23 = load ptr, ptr %22, align 8
  invoke void %23(ptr noundef nonnull align 8 dereferenceable(4264) %20, i32 %17)
          to label %24 unwind label %34

24:                                               ; preds = %18
  br i1 %.not.i.i, label %_ZN7obj_refI3app11ast_managerED2Ev.exit, label %25

25:                                               ; preds = %24
  %26 = getelementptr inbounds nuw i8, ptr %11, i64 8
  %27 = load i32, ptr %26, align 4, !tbaa !436
  %28 = add i32 %27, -1
  store i32 %28, ptr %26, align 4, !tbaa !436
  %29 = icmp eq i32 %28, 0
  br i1 %29, label %30, label %_ZN7obj_refI3app11ast_managerED2Ev.exit

30:                                               ; preds = %25
  invoke void @_ZN11ast_manager11delete_nodeEP3ast(ptr noundef nonnull align 8 dereferenceable(976) %12, ptr noundef nonnull %11)
          to label %_ZN7obj_refI3app11ast_managerED2Ev.exit unwind label %31

31:                                               ; preds = %30
  %32 = landingpad { ptr, i32 }
          catch ptr null
  %33 = extractvalue { ptr, i32 } %32, 0
  call void @__clang_call_terminate(ptr %33) #24
  unreachable

_ZN7obj_refI3app11ast_managerED2Ev.exit:          ; preds = %24, %25, %30
  call void @llvm.lifetime.end.p0(i64 16, ptr nonnull %5) #23
  ret i32 %17

34:                                               ; preds = %18, %_ZN7obj_refI3app11ast_managerEC2EPS0_RS1_.exit
  %35 = landingpad { ptr, i32 }
          cleanup
  call void @_ZN7obj_refI3app11ast_managerED2Ev(ptr noundef nonnull align 8 dereferenceable(16) %5) #23
  call void @llvm.lifetime.end.p0(i64 16, ptr nonnull %5) #23
  resume { ptr, i32 } %35
}